; Function Attrs: nounwind uwtable
define internal void @resample_free(ptr noundef %0) #0 {
  %2 = load ptr, ptr %0, align 8, !tbaa !4
  %.not = icmp eq ptr %2, null
  br i1 %.not, label %5, label %3

3:                                                ; preds = %1
  %4 = getelementptr inbounds nuw i8, ptr %2, i64 8
  tail call void @av_freep(ptr noundef nonnull %4) #9
  tail call void @av_freep(ptr noundef nonnull %0) #9
  br label %5

5:                                                ; preds = %1, %3
  ret void
}